target datalayout = "e-m:e-p270:32:32-p271:32:32-p272:64:64-i64:64-i128:128-f80:128-n8:16:32:64-S128"
target triple = "x86_64-pc-linux-gnu"

%struct.UCMStates = type { [128 x [256 x i32]], [128 x i32], [128 x i32], i32, i32, i32, i32, i8, i8 }
%struct.UCMFile = type { ptr, ptr, %struct.UCMStates, [60 x i8] }

@stderr = external global ptr, align 8
@.str.14 = private unnamed_addr constant [42 x i8] c"ucm error: unable to allocate a UCMTable\0A\00", align 1
@.str.20 = private unnamed_addr constant [41 x i8] c"ucm error: unable to allocate a UCMFile\0A\00", align 1

; Function Attrs: mustprogress uwtable
define ptr @ucm_openTable() #0 {
  %1 = alloca ptr, align 8
  call void @llvm.lifetime.start.p0(i64 8, ptr %1) #12
  %2 = call noalias ptr @uprv_malloc_77(i64 noundef 64) #13
  store ptr %2, ptr %1, align 8, !tbaa !3
  %3 = load ptr, ptr %1, align 8, !tbaa !3
  %4 = icmp eq ptr %3, null
  br i1 %4, label %5, label %8

5:                                                ; preds = %0
  %6 = load ptr, ptr @stderr, align 8, !tbaa !10
  %7 = call i32 (ptr, ptr, ...) @fprintf(ptr noundef %6, ptr noundef @.str.14) #12
  call void @exit(i32 noundef 7) #14
  unreachable

8:                                                ; preds = %0
  %9 = load ptr, ptr %1, align 8, !tbaa !3
  call void @llvm.memset.p0.i64(ptr align 8 %9, i8 0, i64 64, i1 false)
  %10 = load ptr, ptr %1, align 8, !tbaa !3
  call void @llvm.lifetime.end.p0(i64 8, ptr %1) #12
  ret ptr %10
}

; Function Attrs: mustprogress uwtable
define ptr @ucm_open() #0 {
  %1 = alloca ptr, align 8
  call void @llvm.lifetime.start.p0(i64 8, ptr %1) #12
  %2 = call noalias ptr @uprv_malloc_77(i64 noundef 132192) #13
  store ptr %2, ptr %1, align 8, !tbaa !64
  %3 = load ptr, ptr %1, align 8, !tbaa !64
  %4 = icmp eq ptr %3, null
  br i1 %4, label %5, label %8

5:                                                ; preds = %0
  %6 = load ptr, ptr @stderr, align 8, !tbaa !10
  %7 = call i32 (ptr, ptr, ...) @fprintf(ptr noundef %6, ptr noundef @.str.20) #12
  call void @exit(i32 noundef 7) #14
  unreachable

8:                                                ; preds = %0
  %9 = load ptr, ptr %1, align 8, !tbaa !64
  call void @llvm.memset.p0.i64(ptr align 8 %9, i8 0, i64 132192, i1 false)
  %10 = call ptr @ucm_openTable()
  %11 = load ptr, ptr %1, align 8, !tbaa !64
  %12 = getelementptr inbounds nuw %struct.UCMFile, ptr %11, i32 0, i32 0
  store ptr %10, ptr %12, align 8, !tbaa !66
  %13 = call ptr @ucm_openTable()
  %14 = load ptr, ptr %1, align 8, !tbaa !64
  %15 = getelementptr inbounds nuw %struct.UCMFile, ptr %14, i32 0, i32 1
  store ptr %13, ptr %15, align 8, !tbaa !69
  %16 = load ptr, ptr %1, align 8, !tbaa !64
  %17 = getelementptr inbounds nuw %struct.UCMFile, ptr %16, i32 0, i32 2
  %18 = getelementptr inbounds nuw %struct.UCMStates, ptr %17, i32 0, i32 1
  %19 = getelementptr inbounds [128 x i32], ptr %18, i64 0, i64 0
  store i32 1, ptr %19, align 8, !tbaa !25
  %20 = load ptr, ptr %1, align 8, !tbaa !64
  %21 = getelementptr inbounds nuw %struct.UCMFile, ptr %20, i32 0, i32 2
  %22 = getelementptr inbounds nuw %struct.UCMStates, ptr %21, i32 0, i32 7
  store i8 -1, ptr %22, align 8, !tbaa !77
  %23 = load ptr, ptr %1, align 8, !tbaa !64
  %24 = getelementptr inbounds nuw %struct.UCMFile, ptr %23, i32 0, i32 2
  %25 = getelementptr inbounds nuw %struct.UCMStates, ptr %24, i32 0, i32 8
  store i8 -1, ptr %25, align 1, !tbaa !78
  %26 = load ptr, ptr %1, align 8, !tbaa !64
  %27 = getelementptr inbounds nuw %struct.UCMFile, ptr %26, i32 0, i32 2
  %28 = getelementptr inbounds nuw %struct.UCMStates, ptr %27, i32 0, i32 5
  store i32 1, ptr %28, align 8, !tbaa !79
  %29 = load ptr, ptr %1, align 8, !tbaa !64
  %30 = getelementptr inbounds nuw %struct.UCMFile, ptr %29, i32 0, i32 2
  %31 = getelementptr inbounds nuw %struct.UCMStates, ptr %30, i32 0, i32 4
  store i32 1, ptr %31, align 4, !tbaa !80
  %32 = load ptr, ptr %1, align 8, !tbaa !64
  call void @llvm.lifetime.end.p0(i64 8, ptr %1) #12
  ret ptr %32
}