; Function Attrs: mustprogress uwtable
define noalias nonnull ptr @ucm_open() local_unnamed_addr #2 {
  %1 = tail call noalias dereferenceable_or_null(132192) ptr @uprv_malloc_77(i64 noundef 132192) #17
  %2 = icmp eq ptr %1, null
  br i1 %2, label %3, label %6

3:                                                ; preds = %0
  %4 = load ptr, ptr @stderr, align 8, !tbaa !32
  %5 = tail call i64 @fwrite(ptr nonnull @.str.20, i64 40, i64 1, ptr %4) #18
  tail call void @exit(i32 noundef 7) #19
  unreachable

6:                                                ; preds = %0
  %7 = getelementptr inbounds nuw i8, ptr %1, i64 16
  tail call void @llvm.memset.p0.i64(ptr noundef nonnull align 8 dereferenceable(132176) %7, i8 0, i64 132176, i1 false)
  %8 = tail call noalias dereferenceable_or_null(64) ptr @uprv_malloc_77(i64 noundef 64) #17
  %9 = icmp eq ptr %8, null
  br i1 %9, label %10, label %ucm_openTable.exit

10:                                               ; preds = %6
  %11 = load ptr, ptr @stderr, align 8, !tbaa !32
  %12 = tail call i64 @fwrite(ptr nonnull @.str.14, i64 41, i64 1, ptr %11) #18
  tail call void @exit(i32 noundef 7) #19
  unreachable

ucm_openTable.exit:                               ; preds = %6
  tail call void @llvm.memset.p0.i64(ptr noundef nonnull align 8 dereferenceable(64) %8, i8 0, i64 64, i1 false)
  store ptr %8, ptr %1, align 8, !tbaa !58
  %13 = tail call noalias dereferenceable_or_null(64) ptr @uprv_malloc_77(i64 noundef 64) #17
  %14 = icmp eq ptr %13, null
  br i1 %14, label %15, label %ucm_openTable.exit10

15:                                               ; preds = %ucm_openTable.exit
  %16 = load ptr, ptr @stderr, align 8, !tbaa !32
  %17 = tail call i64 @fwrite(ptr nonnull @.str.14, i64 41, i64 1, ptr %16) #18
  tail call void @exit(i32 noundef 7) #19
  unreachable

ucm_openTable.exit10:                             ; preds = %ucm_openTable.exit
  tail call void @llvm.memset.p0.i64(ptr noundef nonnull align 8 dereferenceable(64) %13, i8 0, i64 64, i1 false)
  %18 = getelementptr inbounds nuw i8, ptr %1, i64 8
  store ptr %13, ptr %18, align 8, !tbaa !63
  %19 = getelementptr inbounds nuw i8, ptr %1, i64 131088
  store i32 1, ptr %19, align 8, !tbaa !18
  %20 = getelementptr inbounds nuw i8, ptr %1, i64 132128
  store i8 -1, ptr %20, align 8, !tbaa !68
  %21 = getelementptr inbounds nuw i8, ptr %1, i64 132129
  store i8 -1, ptr %21, align 1, !tbaa !69
  %22 = getelementptr inbounds nuw i8, ptr %1, i64 132120
  store i32 1, ptr %22, align 8, !tbaa !70
  %23 = getelementptr inbounds nuw i8, ptr %1, i64 132116
  store i32 1, ptr %23, align 4, !tbaa !71
  ret ptr %1
}